; Function Attrs: nounwind sspstrong uwtable
define dso_local range(i32 0, 2) i32 @rb_st_insert2(ptr noundef captures(none) %0, i64 noundef %1, i64 noundef %2, ptr noundef readonly captures(none) %3) local_unnamed_addr #0 {
  %5 = alloca i64, align 8
  call void @llvm.lifetime.start.p0(i64 8, ptr nonnull %5) #25
  %6 = getelementptr i8, ptr %0, i64 8
  %.val = load ptr, ptr %6, align 8, !tbaa !11
  %7 = getelementptr i8, ptr %.val, i64 8
  %.val.val = load ptr, ptr %7, align 8, !tbaa !29
  %8 = tail call i64 %.val.val(i64 noundef %1) #25
  %9 = icmp eq i64 %8, -1
  %10 = select i1 %9, i64 0, i64 %8
  %11 = getelementptr inbounds nuw i8, ptr %0, i64 24
  %12 = getelementptr inbounds nuw i8, ptr %0, i64 40
  %13 = getelementptr inbounds nuw i8, ptr %0, i64 48
  %14 = getelementptr inbounds nuw i8, ptr %0, i64 32
  %15 = getelementptr inbounds nuw i8, ptr %0, i64 4
  br label %.backedge

.backedge:                                        ; preds = %.backedge.backedge, %4
  tail call fastcc void @rebuild_table_if_necessary(ptr noundef %0)
  %16 = load ptr, ptr %11, align 8, !tbaa !25
  %17 = icmp eq ptr %16, null
  br i1 %17, label %18, label %46

18:                                               ; preds = %.backedge
  %19 = load i64, ptr %12, align 8, !tbaa !31
  %20 = load ptr, ptr %13, align 8, !tbaa !26
  %21 = load i64, ptr %14, align 8, !tbaa !32
  %22 = icmp ult i64 %21, %19
  br i1 %22, label %.lr.ph.i, label %.thread47

.lr.ph.i:                                         ; preds = %18
  %.pre.i = load i32, ptr %15, align 4, !tbaa !28
  br label %23

23:                                               ; preds = %41, %.lr.ph.i
  %24 = phi i32 [ %.pre.i, %.lr.ph.i ], [ %38, %41 ]
  %.02233.i = phi i64 [ %21, %.lr.ph.i ], [ %42, %41 ]
  %25 = getelementptr %struct.st_table_entry, ptr %20, i64 %.02233.i
  %26 = load i64, ptr %25, align 8, !tbaa !33
  %27 = icmp eq i64 %26, %10
  br i1 %27, label %28, label %37

28:                                               ; preds = %23
  %29 = getelementptr inbounds nuw i8, ptr %25, i64 8
  %30 = load i64, ptr %29, align 8, !tbaa !35
  %31 = icmp eq i64 %1, %30
  br i1 %31, label %.thread.i, label %32

.thread.i:                                        ; preds = %28
  %.not25.not.i = icmp eq i32 %.pre.i, %24
  br i1 %.not25.not.i, label %find_entry.exit, label %.backedge.backedge, !prof !36

32:                                               ; preds = %28
  %33 = load ptr, ptr %6, align 8, !tbaa !11
  %34 = load ptr, ptr %33, align 8, !tbaa !37
  %35 = tail call i32 %34(i64 noundef %1, i64 noundef %30) #25
  %36 = icmp eq i32 %35, 0
  %.pre39.i = load i32, ptr %15, align 4, !tbaa !28
  br label %37

37:                                               ; preds = %32, %23
  %38 = phi i32 [ %24, %23 ], [ %.pre39.i, %32 ]
  %39 = phi i32 [ %.pre.i, %23 ], [ %.pre39.i, %32 ]
  %40 = phi i1 [ false, %23 ], [ %36, %32 ]
  %.not.i = icmp ne i32 %.pre.i, %39
  %brmerge.i = select i1 %.not.i, i1 true, i1 %40
  br i1 %brmerge.i, label %.loopexit.split.loop.exit31.i, label %41, !prof !38

41:                                               ; preds = %37
  %42 = add i64 %.02233.i, 1
  %exitcond.not.i = icmp eq i64 %42, %19
  br i1 %exitcond.not.i, label %.thread47, label %23, !llvm.loop !39

.loopexit.split.loop.exit31.i:                    ; preds = %37
  br i1 %.not.i, label %.backedge.backedge, label %find_entry.exit, !prof !41

.backedge.backedge:                               ; preds = %.loopexit.split.loop.exit31.i, %.thread.i, %46, %find_entry.exit
  br label %.backedge

find_entry.exit:                                  ; preds = %.thread.i, %.loopexit.split.loop.exit31.i
  switch i64 %.02233.i, label %.loopexit [
    i64 -2, label %.backedge.backedge
    i64 -1, label %.thread47
  ], !prof !49

.thread47:                                        ; preds = %find_entry.exit, %18, %41
  %43 = getelementptr inbounds nuw i8, ptr %0, i64 16
  %44 = load i64, ptr %43, align 8, !tbaa !27
  %45 = add i64 %44, 1
  store i64 %45, ptr %43, align 8, !tbaa !27
  br label %52

46:                                               ; preds = %.backedge
  %47 = call fastcc i64 @find_table_bin_ptr_and_reserve(ptr noundef nonnull %0, i64 %10, i64 noundef %1, ptr noundef %5)
  %48 = icmp eq i64 %47, -2
  br i1 %48, label %.backedge.backedge, label %49, !prof !50

49:                                               ; preds = %46
  %50 = icmp eq i64 %47, -1
  %51 = add i64 %47, -2
  br i1 %50, label %._crit_edge, label %.loopexit

._crit_edge:                                      ; preds = %49
  %.pre = load i64, ptr %5, align 8, !tbaa !7
  br label %52

52:                                               ; preds = %._crit_edge, %.thread47
  %53 = phi i64 [ %.pre, %._crit_edge ], [ -1, %.thread47 ]
  %54 = tail call i64 %3(i64 noundef %1) #25
  %55 = load i64, ptr %12, align 8, !tbaa !31
  %56 = add i64 %55, 1
  store i64 %56, ptr %12, align 8, !tbaa !31
  %57 = load ptr, ptr %13, align 8, !tbaa !26
  %58 = getelementptr %struct.st_table_entry, ptr %57, i64 %55
  store i64 %10, ptr %58, align 8, !tbaa !33
  %59 = getelementptr inbounds nuw i8, ptr %58, i64 8
  store i64 %54, ptr %59, align 8, !tbaa !35
  %60 = getelementptr inbounds nuw i8, ptr %58, i64 16
  store i64 %2, ptr %60, align 8, !tbaa !48
  %.not = icmp eq i64 %53, -1
  br i1 %.not, label %set_bin.exit, label %61

61:                                               ; preds = %52
  %62 = load ptr, ptr %11, align 8, !tbaa !25
  %63 = getelementptr i8, ptr %0, i64 2
  %.val36 = load i8, ptr %63, align 2, !tbaa !23
  %64 = add i64 %55, 2
  switch i8 %.val36, label %74 [
    i8 0, label %65
    i8 1, label %68
    i8 2, label %71
  ]

65:                                               ; preds = %61
  %66 = trunc i64 %64 to i8
  %67 = getelementptr i8, ptr %62, i64 %53
  store i8 %66, ptr %67, align 1, !tbaa !43
  br label %set_bin.exit

68:                                               ; preds = %61
  %69 = trunc i64 %64 to i16
  %70 = getelementptr i16, ptr %62, i64 %53
  store i16 %69, ptr %70, align 2, !tbaa !44
  br label %set_bin.exit

71:                                               ; preds = %61
  %72 = trunc i64 %64 to i32
  %73 = getelementptr i32, ptr %62, i64 %53
  store i32 %72, ptr %73, align 4, !tbaa !46
  br label %set_bin.exit

74:                                               ; preds = %61
  %75 = getelementptr i64, ptr %62, i64 %53
  store i64 %64, ptr %75, align 8, !tbaa !7
  br label %set_bin.exit

.loopexit:                                        ; preds = %find_entry.exit, %49
  %.03346 = phi i64 [ %51, %49 ], [ %.02233.i, %find_entry.exit ]
  %76 = load ptr, ptr %13, align 8, !tbaa !26
  %77 = getelementptr %struct.st_table_entry, ptr %76, i64 %.03346, i32 2
  store i64 %2, ptr %77, align 8, !tbaa !48
  br label %set_bin.exit

set_bin.exit:                                     ; preds = %74, %71, %68, %65, %52, %.loopexit
  %.032 = phi i32 [ 1, %.loopexit ], [ 0, %52 ], [ 0, %65 ], [ 0, %68 ], [ 0, %71 ], [ 0, %74 ]
  call void @llvm.lifetime.end.p0(i64 8, ptr nonnull %5) #25
  ret i32 %.032
}